(lp0
(dp1
S'remarks'
p2
VCheck
p3
sS'commit_date'
p4
V06-25-2017
p5
sS'currency'
p6
Vusd
p7
sS'donor_id'
p8
V1
p9
sS'commit_amt'
p10
V200
p11
sS'payment_mode'
p12
Vbank_transfer
p13
sS'commit_time'
p14
V23:55
p15
sa(dp16
S'commit_date'
p17
V06-25-2017
p18
sS'payment_mode'
p19
Vbank_transfer
p20
sS'currency'
p21
Vusd
p22
sS'donor_id'
p23
V1
p24
sS'commit_amt'
p25
V223
p26
sS'remarks'
p27
Vhello
p28
sS'commit_time'
p29
V23:57
p30
sa(dp31
S'remarks'
p32
Vwfdsf
p33
sS'commit_date'
p34
V06-26-2017
p35
sS'currency'
p36
Vusd
p37
sS'donor_id'
p38
V2
p39
sS'commit_amt'
p40
V233
p41
sS'payment_mode'
p42
Vbank_transfer
p43
sS'commit_time'
p44
V00:01
p45
sa(dp46
S'commit_date'
p47
V06-26-2017
p48
sS'payment_mode'
p49
Vbank_transfer
p50
sS'currency'
p51
Vusd
p52
sS'donor_id'
p53
V2
p54
sS'commit_amt'
p55
V323
p56
sS'remarks'
p57
Vsdfsfddf
p58
sS'commit_time'
p59
V00:03
p60
sa(dp61
S'remarks'
p62
Vssfd
p63
sS'commit_date'
p64
V06-26-2017
p65
sS'currency'
p66
Vusd
p67
sS'donor_id'
p68
V1
p69
sS'commit_amt'
p70
V2333
p71
sS'payment_mode'
p72
Vbank_transfer
p73
sS'commit_time'
p74
V00:04
p75
sa.