(lp0
(dp1
S'name'
p2
VHarshad Mehta
p3
sS'title'
p4
VMr
p5
sS'donor_status'
p6
S'New'
p7
sS'phone'
p8
V9788554478
p9
sS'email'
p10
V
p11
sS'org'
p12
VMehta Enterprises
p13
sS'contact_person'
p14
VSaurabh Singh
p15
sS'contact_date'
p16
V06/02/2017
p17
sS'id'
p18
I1
sS'anonymous_select'
p19
VNo
p20
sa(dp21
S'name'
p22
VTimy Perskin
p23
sS'title'
p24
VMrs
p25
sS'id'
p26
I2
sS'phone'
p27
V67236237
p28
sS'donor_status'
p29
S'New'
p30
sS'org'
p31
VHotels Umlimited
p32
sS'contact_person'
p33
VSaurabh Singh
p34
sS'contact_date'
p35
V06/03/2017
p36
sS'email'
p37
g11
sS'anonymous_select'
p38
VYes
p39
sa.