(lp0
(dp1
S'name'
p2
VHarshad Mehta
p3
sS'title'
p4
VMr
p5
sS'donor_status'
p6
S'Committed'
p7
sS'phone'
p8
V9788554478
p9
sS'volunteer_name'
p10
VNitin Kumar
p11
sS'id'
p12
I1
sS'org'
p13
VMehta Enterprises
p14
sS'contact_person'
p15
VSaurabh Singh
p16
sS'contact_date'
p17
V06/02/2017
p18
sS'email'
p19
Vharshadfunny@gmail.com
p20
sS'anonymous_select'
p21
VNo
p22
sa(dp23
S'name'
p24
VTimy Perskin
p25
sS'title'
p26
VMrs
p27
sS'email'
p28
V
p29
sS'phone'
p30
V67236237
p31
sS'volunteer_name'
p32
VNitin Kumar
p33
sS'donor_status'
p34
S'Allotted'
p35
sS'org'
p36
VHotels Umlimited
p37
sS'contact_person'
p38
VSaurabh Singh
p39
sS'contact_date'
p40
V06/03/2017
p41
sS'id'
p42
I2
sS'anonymous_select'
p43
VYes
p44
sa(dp45
S'name'
p46
VKunal Sethi
p47
sS'title'
p48
VMr
p49
sS'email'
p50
g29
sS'phone'
p51
V83738787
p52
sS'donor_status'
p53
S'New'
p54
sS'org'
p55
VSethi & Sons
p56
sS'contact_person'
p57
VSaurabh Singh
p58
sS'contact_date'
p59
V06/20/2017
p60
sS'id'
p61
I3
sS'anonymous_select'
p62
VYes
p63
sa.