(lp0
(dp1
S'name'
p2
VHarshad Mehta
p3
sS'title'
p4
VMr
p5
sS'email'
p6
Vharshadfunny@gmail.com
p7
sS'phone'
p8
V9788554478
p9
sS'id'
p10
I1
sS'org'
p11
VMehta Enterprises
p12
sS'contact_person'
p13
VSaurabh Singh
p14
sS'contact_date'
p15
V06/02/2017
p16
sS'donor_status'
p17
S'New'
p18
sS'anonymous_select'
p19
VNo
p20
sa(dp21
S'name'
p22
VTimy Perskin
p23
sS'title'
p24
VMrs
p25
sS'donor_status'
p26
S'New'
p27
sS'phone'
p28
V67236237
p29
sS'email'
p30
V
p31
sS'org'
p32
VHotels Umlimited
p33
sS'contact_person'
p34
VSaurabh Singh
p35
sS'contact_date'
p36
V06/03/2017
p37
sS'id'
p38
I2
sS'anonymous_select'
p39
VYes
p40
sa.