(lp0
(dp1
S'name'
p2
VHarshad Mehta
p3
sS'title'
p4
VMr
p5
sS'email'
p6
Vharshadfunny@gmail.com
p7
sS'phone'
p8
V9788554478
p9
sS'volunteer_name'
p10
VNitin Kumar
p11
sS'donor_status'
p12
S'Committed'
p13
sS'org'
p14
VMehta Enterprises
p15
sS'contact_person'
p16
VSaurabh Singh
p17
sS'contact_date'
p18
V06/02/2017
p19
sS'id'
p20
I1
sS'anonymous_select'
p21
VNo
p22
sa(dp23
S'name'
p24
VTimy Perskin
p25
sS'title'
p26
VMrs
p27
sS'email'
p28
V
p29
sS'phone'
p30
V67236237
p31
sS'volunteer_name'
p32
VNitin Kumar
p33
sS'id'
p34
I2
sS'org'
p35
VHotels Umlimited
p36
sS'contact_person'
p37
VSaurabh Singh
p38
sS'contact_date'
p39
V06/03/2017
p40
sS'donor_status'
p41
S'Allotted'
p42
sS'anonymous_select'
p43
VYes
p44
sa(dp45
S'name'
p46
VKunal Sethi
p47
sS'title'
p48
VMr
p49
sS'email'
p50
g29
sS'phone'
p51
V83738787
p52
sS'volunteer_name'
p53
VNitin Kumar
p54
sS'id'
p55
I3
sS'org'
p56
VSethi & Sons
p57
sS'contact_person'
p58
VSaurabh Singh
p59
sS'contact_date'
p60
V06/20/2017
p61
sS'donor_status'
p62
S'Allotted'
p63
sS'anonymous_select'
p64
VYes
p65
sa(dp66
S'name'
p67
VKunal Sethi
p68
sS'title'
p69
VMr
p70
sS'donor_status'
p71
S'New'
p72
sS'phone'
p73
V79847894798
p74
sS'email'
p75
Vsethi@gmail.com
p76
sS'org'
p77
VSethi & Sons
p78
sS'contact_person'
p79
VSaurabh Singh
p80
sS'contact_date'
p81
V06/29/2017
p82
sS'id'
p83
I4
sS'anonymous_select'
p84
VYes
p85
sa.