(lp0
(dp1
S'username'
p2
VSAURABHIMA
p3
sS'name'
p4
VSaurabh Singh
p5
sS'user_type'
p6
VAdministrator
p7
sS'register_date'
p8
S'2017-06-11'
p9
sS'phone'
p10
V9797404488
p11
sS'account_status'
p12
S'Active'
p13
sS'password'
p14
Vabc123
p15
sS'email'
p16
Vsaurabhima@gmail.com
p17
sa(dp18
S'username'
p19
Vneelesh12
p20
sS'name'
p21
VNeelesh Singh
p22
sS'user_type'
p23
VVolunteer
p24
sS'register_date'
p25
S'2017-06-13'
p26
sS'phone'
p27
V87383983
p28
sS'account_status'
p29
S'Active'
p30
sS'password'
p31
Vabc123
p32
sS'email'
p33
Vneelesh12@gmail.com
p34
sa(dp35
S'username'
p36
Vkaymenon
p37
sS'name'
p38
VKay Menon
p39
sS'user_type'
p40
VSupervisor
p41
sS'register_date'
p42
S'2017-06-14'
p43
sS'phone'
p44
V8378378
p45
sS'account_status'
p46
S'Active'
p47
sS'password'
p48
Vabc123
p49
sS'email'
p50
Vkaymenon@gmail.com
p51
sa.